Certificate:
    Data:
        Version: 3 (0x2)
        Serial Number: 1 (0x1)
        Signature Algorithm: sha1WithRSAEncryption
        Issuer: C=CN, ST=Beijing, L=Beijing, O=Kuark Finance Holdings Limited, OU=Kuark Finance R&D, CN=kuarkFinance.cn/emailAddress=miaogaoliang@kuark.com
        Validity
            Not Before: Jan  6 08:37:07 2015 GMT
            Not After : Jan  6 08:37:07 2020 GMT
        Subject: C=CN, ST=Beijing, L=Beijing, O=Kuark Finance, OU=Kuark Finance, CN=app.kuarkFinance.cn/emailAddress=miaogaoliang@kuark.com
        Subject Public Key Info:
            Public Key Algorithm: rsaEncryption
            RSA Public Key: (2048 bit)
                Modulus (2048 bit):
                    00:c5:ce:c8:04:3c:b1:76:5d:4e:83:ea:a3:a6:f5:
                    e5:8f:03:28:65:95:f2:08:6e:18:83:40:6f:df:a5:
                    97:f1:27:aa:2d:f0:09:12:08:73:4c:25:9d:85:15:
                    36:18:ad:1e:c3:a0:b6:e0:6c:89:e6:fb:f7:c3:56:
                    d4:11:92:7b:d1:97:58:a8:c8:c1:20:72:d8:f2:ce:
                    ed:e9:cc:aa:30:5b:fc:71:1e:b7:54:7d:47:eb:64:
                    9a:d8:ca:3e:21:eb:02:24:d2:40:cf:b4:be:84:a5:
                    c7:33:51:dd:f8:43:e6:13:23:cb:07:64:b2:72:ff:
                    8e:74:77:ac:a0:c8:20:d4:af:91:f5:86:20:3c:e2:
                    db:6d:7b:46:58:d6:ed:f9:16:a4:44:ba:7a:8e:ca:
                    d1:bd:51:8d:20:34:d2:1a:70:3c:f3:16:01:1e:ae:
                    24:57:f9:b6:d9:58:0f:d5:53:5f:b4:63:f5:de:28:
                    60:ec:2e:d3:ee:3a:e7:4f:da:d5:ac:24:c0:ba:8b:
                    32:64:d5:31:11:45:4b:56:3f:db:8d:55:d2:9f:e4:
                    aa:4f:45:5e:e1:33:e5:2c:d5:78:97:2c:b8:98:fb:
                    da:56:bd:f8:52:90:3b:42:4d:ea:47:82:78:e8:a9:
                    ee:71:58:50:3a:29:dd:bd:a4:61:cf:85:9c:de:2d:
                    92:d3
                Exponent: 65537 (0x10001)
        X509v3 extensions:
            X509v3 Basic Constraints: 
                CA:FALSE
            Netscape Comment: 
                OpenSSL Generated Certificate
            X509v3 Subject Key Identifier: 
                78:A4:2B:D5:FC:F4:38:6E:97:E2:FC:49:86:8E:C6:7E:CB:89:FD:10
            X509v3 Authority Key Identifier: 
                keyid:D5:97:0A:7C:0D:D7:91:AB:CB:19:91:E2:2B:C5:01:1C:AE:33:B1:C5

    Signature Algorithm: sha1WithRSAEncryption
        82:b1:a4:2c:f9:a1:12:e6:08:98:ca:2e:96:8d:bb:be:52:22:
        a6:56:20:3a:df:7d:41:e1:37:10:23:81:5b:5d:e0:8b:6f:b9:
        9b:d6:18:c0:17:a4:6c:9d:90:39:4f:fc:47:04:d9:46:1e:ac:
        f1:18:27:ab:aa:c6:cd:5f:ce:47:6e:7a:0e:9a:94:67:5b:9b:
        8e:bf:7e:fb:3c:4f:a5:f2:48:b3:3c:10:3d:3a:44:d3:a8:45:
        d4:67:65:71:60:4b:e5:1f:e1:11:c0:04:29:f7:dc:83:18:ba:
        93:d9:15:26:ca:3a:9d:04:dc:b7:f0:f7:27:07:93:60:11:31:
        e9:20
-----BEGIN CERTIFICATE-----
MIID1DCCAz2gAwIBAgIBATANBgkqhkiG9w0BAQUFADCBtzELMAkGA1UEBhMCQ04x
EDAOBgNVBAgTB0JlaWppbmcxEDAOBgNVBAcTB0JlaWppbmcxJzAlBgNVBAoTHkt1
YXJrIEZpbmFuY2UgSG9sZGluZ3MgTGltaXRlZDEaMBgGA1UECxQRS3VhcmsgRmlu
YW5jZSBSJkQxGDAWBgNVBAMTD2t1YXJrRmluYW5jZS5jbjElMCMGCSqGSIb3DQEJ
ARYWbWlhb2dhb2xpYW5nQGt1YXJrLmNvbTAeFw0xNTAxMDYwODM3MDdaFw0yMDAx
MDYwODM3MDdaMIGmMQswCQYDVQQGEwJDTjEQMA4GA1UECBMHQmVpamluZzEQMA4G
A1UEBxMHQmVpamluZzEWMBQGA1UEChMNS3VhcmsgRmluYW5jZTEWMBQGA1UECxMN
S3VhcmsgRmluYW5jZTEcMBoGA1UEAxMTYXBwLmt1YXJrRmluYW5jZS5jbjElMCMG
CSqGSIb3DQEJARYWbWlhb2dhb2xpYW5nQGt1YXJrLmNvbTCCASIwDQYJKoZIhvcN
AQEBBQADggEPADCCAQoCggEBAMXOyAQ8sXZdToPqo6b15Y8DKGWV8ghuGINAb9+l
l/Enqi3wCRIIc0wlnYUVNhitHsOgtuBsieb798NW1BGSe9GXWKjIwSBy2PLO7enM
qjBb/HEet1R9R+tkmtjKPiHrAiTSQM+0voSlxzNR3fhD5hMjywdksnL/jnR3rKDI
INSvkfWGIDzi2217RljW7fkWpES6eo7K0b1RjSA00hpwPPMWAR6uJFf5ttlYD9VT
X7Rj9d4oYOwu0+4650/a1awkwLqLMmTVMRFFS1Y/241V0p/kqk9FXuEz5SzVeJcs
uJj72la9+FKQO0JN6keCeOip7nFYUDop3b2kYc+FnN4tktMCAwEAAaN7MHkwCQYD
VR0TBAIwADAsBglghkgBhvhCAQ0EHxYdT3BlblNTTCBHZW5lcmF0ZWQgQ2VydGlm
aWNhdGUwHQYDVR0OBBYEFHikK9X89Dhul+L8SYaOxn7Lif0QMB8GA1UdIwQYMBaA
FNWXCnwN15GryxmR4ivFARyuM7HFMA0GCSqGSIb3DQEBBQUAA4GBAIKxpCz5oRLm
CJjKLpaNu75SIqZWIDrffUHhNxAjgVtd4ItvuZvWGMAXpGydkDlP/EcE2UYerPEY
J6uqxs1fzkdueg6alGdbm46/fvs8T6XySLM8ED06RNOoRdRnZXFgS+Uf4RHABCn3
3IMYupPZFSbKOp0E3Lfw9ycHk2ARMekg
-----END CERTIFICATE-----
-----BEGIN RSA PRIVATE KEY-----
MIIEowIBAAKCAQEAxc7IBDyxdl1Og+qjpvXljwMoZZXyCG4Yg0Bv36WX8SeqLfAJ
EghzTCWdhRU2GK0ew6C24GyJ5vv3w1bUEZJ70ZdYqMjBIHLY8s7t6cyqMFv8cR63
VH1H62Sa2Mo+IesCJNJAz7S+hKXHM1Hd+EPmEyPLB2Sycv+OdHesoMgg1K+R9YYg
POLbbXtGWNbt+RakRLp6jsrRvVGNIDTSGnA88xYBHq4kV/m22VgP1VNftGP13ihg
7C7T7jrnT9rVrCTAuosyZNUxEUVLVj/bjVXSn+SqT0Ve4TPlLNV4lyy4mPvaVr34
UpA7Qk3qR4J46KnucVhQOindvaRhz4Wc3i2S0wIDAQABAoIBAE5fRWRYX7+T7H3b
w4dtOczV5XWKWWD5rgCi0TB9PZwwqP6WciGQ842iAa0u4EYaoWvFC3AT0PeRsXLV
viRQM3qxSlFlaQ9gMZDSZ/UQQAX1DCoNj3mMQaiELc3jI4bww+Ku4zroU+veevRc
ZWPuEwRWVCTTwthJZLnEiMMTR968FvRsWgwVyrb2klpPLXpFNGxVXOTu/SUZMl05
d9p8l0yKWVhK/MCBNdcGB/KsK+fizSKe25DxHTPtvM5Gd6rgq1estWpKpNAnKbXB
0yfsOqJ95fBZgcOa8rBSXFy69PnMaVel+7MMCJo148w20jfwSLY8E5cypE7p7PRH
jBtu+OECgYEA5DZYULfRvc3oPrqvOY56pj926VIFaWiKyTfpV6yR3IK1oHoK3S5p
U2wY8uDysEnFDNpC/tb6gsFAHk/Ckvi3ytDHLiKPIRLZStsLbIcKTZy8z1DZ6Ke/
OGjxscFaGuASi8SSliUsfKtkvRaJEA1WlikktJHcIfO8gO+eCU5LLBsCgYEA3eSw
iXUEljtBdnbXg2wkADa9HgWKuckmNMUFVJIlQ+9nZfXupmLTYxbX1wHxSsFLZN7J
YbDA8fJeQXVET7OZioFbnklpOomhwTdwNb77EHOaS4XFLZJvvhCubrlbQ/A6BYPN
N2D+mBjtVkNYbUQfTWmJgHQglYAjWXftF/qlr6kCgYEAitTYwzogeaRS/h5ZzNz1
lj+TmntQWYDEtYazCKguEATgc2DrTQUYBC0FvHPGkCJAowIAscGcooDn/cit6PUv
8k0ybsmNYyRxVk2NVJeOWAra/hAEkLnD5ZBKQMYMh7766VZLitXQi4NFBJc6CK7k
lvMupj75uRnq+lFLRgQATTMCgYAU8OU8Q7/oEbWO4Y5bR9Rp9MCKWcmK2RHy/vkO
zzAXJjvi4n/gUglTG6/JCdTk0jM0VNY6kvzSmKYOlWuZ/gAqkyS7XoBA1wZd/sZn
PBvjpJVWNUyzjVNgY6CisHmNgtlm9dZjOJMudYPIlVh+D2TI4IHqjosYsNwlMG0+
yxfh6QKBgCjuA6mLAxOwq80KWCNnVPhcg/DI/iljUTAnzT2i5/vfbhHpYx4OZjGN
5o4kutUpR3UtiBarThXuryj6NvC26slzwYV/EU5qXvG3TtKmn9KJjfpnvH0jxHyC
JJaHk/J8Exe6mS8PsbyAJcQ8Ycw37Lel32kF5bjM0QMQYnE9f5pO
-----END RSA PRIVATE KEY-----
